; Function Attrs: null_pointer_is_valid sspstrong uwtable
define internal i32 @samr_dissect_ChangePasswordUser3_request(ptr noundef %0, i32 noundef %1, ptr noundef %2, ptr noundef %3, ptr noundef initializes((72, 80)) %4, ptr noundef %5) #0 {
  %7 = getelementptr inbounds nuw i8, ptr %4, i64 72
  store ptr @.str.1269, ptr %7, align 8
  %8 = load i32, ptr @hf_samr_samr_ChangePasswordUser3_server, align 4
  %9 = tail call i32 @dissect_ndr_toplevel_pointer(ptr noundef %0, i32 noundef %1, ptr noundef %2, ptr noundef %3, ptr noundef %4, ptr noundef %5, ptr noundef nonnull @samr_dissect_element_ChangePasswordUser3_server_, i32 noundef 2, ptr noundef nonnull @.str.1332, i32 noundef %8)
  %10 = tail call i32 @dissect_deferred_pointers(ptr noundef %2, ptr noundef %0, i32 noundef %9, ptr noundef %4, ptr noundef %5)
  %11 = load i32, ptr @hf_samr_samr_ChangePasswordUser3_account, align 4
  %12 = tail call i32 @dissect_ndr_toplevel_pointer(ptr noundef %0, i32 noundef %10, ptr noundef %2, ptr noundef %3, ptr noundef %4, ptr noundef %5, ptr noundef nonnull @samr_dissect_element_ChangePasswordUser3_account_, i32 noundef 1, ptr noundef nonnull @.str.1333, i32 noundef %11)
  %13 = tail call i32 @dissect_deferred_pointers(ptr noundef %2, ptr noundef %0, i32 noundef %12, ptr noundef %4, ptr noundef %5)
  %14 = load i32, ptr @hf_samr_samr_ChangePasswordUser3_nt_password, align 4
  %15 = tail call i32 @dissect_ndr_toplevel_pointer(ptr noundef %0, i32 noundef %13, ptr noundef %2, ptr noundef %3, ptr noundef %4, ptr noundef %5, ptr noundef nonnull @samr_dissect_element_ChangePasswordUser3_nt_password_, i32 noundef 2, ptr noundef nonnull @.str.1334, i32 noundef %14)
  %16 = tail call i32 @dissect_deferred_pointers(ptr noundef %2, ptr noundef %0, i32 noundef %15, ptr noundef %4, ptr noundef %5)
  %17 = load i32, ptr @hf_samr_samr_ChangePasswordUser3_nt_verifier, align 4
  %18 = tail call i32 @dissect_ndr_toplevel_pointer(ptr noundef %0, i32 noundef %16, ptr noundef %2, ptr noundef %3, ptr noundef %4, ptr noundef %5, ptr noundef nonnull @samr_dissect_element_ChangePasswordUser3_nt_verifier_, i32 noundef 2, ptr noundef nonnull @.str.1335, i32 noundef %17)
  %19 = tail call i32 @dissect_deferred_pointers(ptr noundef %2, ptr noundef %0, i32 noundef %18, ptr noundef %4, ptr noundef %5)
  %20 = load i32, ptr @hf_samr_samr_ChangePasswordUser3_lm_change, align 4
  %21 = tail call i32 @PIDL_dissect_uint8(ptr noundef %0, i32 noundef %19, ptr noundef %2, ptr noundef %3, ptr noundef %4, ptr noundef %5, i32 noundef %20, i32 noundef 0)
  %22 = tail call i32 @dissect_deferred_pointers(ptr noundef %2, ptr noundef %0, i32 noundef %21, ptr noundef %4, ptr noundef %5)
  %23 = load i32, ptr @hf_samr_samr_ChangePasswordUser3_lm_password, align 4
  %24 = tail call i32 @dissect_ndr_toplevel_pointer(ptr noundef %0, i32 noundef %22, ptr noundef %2, ptr noundef %3, ptr noundef %4, ptr noundef %5, ptr noundef nonnull @samr_dissect_element_ChangePasswordUser3_lm_password_, i32 noundef 2, ptr noundef nonnull @.str.1336, i32 noundef %23)
  %25 = tail call i32 @dissect_deferred_pointers(ptr noundef %2, ptr noundef %0, i32 noundef %24, ptr noundef %4, ptr noundef %5)
  %26 = load i32, ptr @hf_samr_samr_ChangePasswordUser3_lm_verifier, align 4
  %27 = tail call i32 @dissect_ndr_toplevel_pointer(ptr noundef %0, i32 noundef %25, ptr noundef %2, ptr noundef %3, ptr noundef %4, ptr noundef %5, ptr noundef nonnull @samr_dissect_element_ChangePasswordUser3_lm_verifier_, i32 noundef 2, ptr noundef nonnull @.str.1337, i32 noundef %26)
  %28 = tail call i32 @dissect_deferred_pointers(ptr noundef %2, ptr noundef %0, i32 noundef %27, ptr noundef %4, ptr noundef %5)
  %29 = load i32, ptr @hf_samr_samr_ChangePasswordUser3_password3, align 4
  %30 = tail call i32 @dissect_ndr_toplevel_pointer(ptr noundef %0, i32 noundef %28, ptr noundef %2, ptr noundef %3, ptr noundef %4, ptr noundef %5, ptr noundef nonnull @samr_dissect_element_ChangePasswordUser3_password3_, i32 noundef 2, ptr noundef nonnull @.str.1340, i32 noundef %29)
  %31 = tail call i32 @dissect_deferred_pointers(ptr noundef %2, ptr noundef %0, i32 noundef %30, ptr noundef %4, ptr noundef %5)
  ret i32 %31
}